	.file	"main.c"
	.def	___main;	.scl	2;	.type	32;	.endef
	.section .rdata,"dr"
LC0:
	.ascii "%d\0"
LC1:
	.ascii "number is ugly\0"
LC2:
	.ascii "number is not ugly\0"
	.text
	.globl	_main
	.def	_main;	.scl	2;	.type	32;	.endef
_main:
LFB10:
	.cfi_startproc
	pushl	%ebp
	.cfi_def_cfa_offset 8
	.cfi_offset 5, -8
	movl	%esp, %ebp
	.cfi_def_cfa_register 5
	andl	$-16, %esp
	subl	$32, %esp
	call	___main
	leal	28(%esp), %eax
	movl	%eax, 4(%esp)
	movl	$LC0, (%esp)
	call	_scanf
	jmp	L2
L3:
	movl	28(%esp), %eax
	movl	%eax, %edx
	shrl	$31, %edx
	addl	%edx, %eax
	sarl	%eax
	movl	%eax, 28(%esp)
L2:
	movl	28(%esp), %eax
	andl	$1, %eax
	testl	%eax, %eax
	je	L3
	jmp	L4
L5:
	movl	28(%esp), %ecx
	movl	$1431655766, %edx
	movl	%ecx, %eax
	imull	%edx
	movl	%ecx, %eax
	sarl	$31, %eax
	subl	%eax, %edx
	movl	%edx, %eax
	movl	%eax, 28(%esp)
L4:
	movl	28(%esp), %ecx
	movl	$1431655766, %edx
	movl	%ecx, %eax
	imull	%edx
	movl	%ecx, %eax
	sarl	$31, %eax
	subl	%eax, %edx
	movl	%edx, %eax
	movl	%eax, %edx
	addl	%edx, %edx
	addl	%eax, %edx
	movl	%ecx, %eax
	subl	%edx, %eax
	testl	%eax, %eax
	je	L5
	jmp	L6
L7:
	movl	28(%esp), %ecx
	movl	$1717986919, %edx
	movl	%ecx, %eax
	imull	%edx
	sarl	%edx
	movl	%ecx, %eax
	sarl	$31, %eax
	subl	%eax, %edx
	movl	%edx, %eax
	movl	%eax, 28(%esp)
L6:
	movl	28(%esp), %ecx
	movl	$1717986919, %edx
	movl	%ecx, %eax
	imull	%edx
	sarl	%edx
	movl	%ecx, %eax
	sarl	$31, %eax
	subl	%eax, %edx
	movl	%edx, %eax
	movl	%eax, %edx
	sall	$2, %edx
	addl	%eax, %edx
	movl	%ecx, %eax
	subl	%edx, %eax
	testl	%eax, %eax
	je	L7
	movl	28(%esp), %eax
	cmpl	$1, %eax
	jne	L8
	movl	$LC1, (%esp)
	call	_printf
	jmp	L9
L8:
	movl	$LC2, (%esp)
	call	_printf
L9:
	movl	$0, %eax
	leave
	.cfi_restore 5
	.cfi_def_cfa 4, 4
	ret
	.cfi_endproc
LFE10:
	.ident	"GCC: (MinGW.org GCC-6.3.0-1) 6.3.0"
	.def	_scanf;	.scl	2;	.type	32;	.endef
	.def	_printf;	.scl	2;	.type	32;	.endef
